target datalayout = "e-m:e-p270:32:32-p271:32:32-p272:64:64-i64:64-i128:128-f80:128-n8:16:32:64-S128"
target triple = "x86_64-pc-linux-gnu"

%struct.EVP_RC2_KEY = type { i32, %struct.rc2_key_st }
%struct.rc2_key_st = type { [64 x i32] }

; Function Attrs: nounwind uwtable
define internal i32 @rc2_init_key(ptr noundef %0, ptr noundef %1, ptr noundef %2, i32 noundef %3) #0 {
  %5 = alloca ptr, align 8
  %6 = alloca ptr, align 8
  %7 = alloca ptr, align 8
  %8 = alloca i32, align 4
  store ptr %0, ptr %5, align 8, !tbaa !3
  store ptr %1, ptr %6, align 8, !tbaa !8
  store ptr %2, ptr %7, align 8, !tbaa !8
  store i32 %3, ptr %8, align 4, !tbaa !10
  %9 = load ptr, ptr %5, align 8, !tbaa !3
  %10 = call ptr @EVP_CIPHER_CTX_get_cipher_data(ptr noundef %9)
  %11 = getelementptr inbounds nuw %struct.EVP_RC2_KEY, ptr %10, i32 0, i32 1
  %12 = load ptr, ptr %5, align 8, !tbaa !3
  %13 = call i32 @EVP_CIPHER_CTX_get_key_length(ptr noundef %12)
  %14 = load ptr, ptr %6, align 8, !tbaa !8
  %15 = load ptr, ptr %5, align 8, !tbaa !3
  %16 = call ptr @EVP_CIPHER_CTX_get_cipher_data(ptr noundef %15)
  %17 = getelementptr inbounds nuw %struct.EVP_RC2_KEY, ptr %16, i32 0, i32 0
  %18 = load i32, ptr %17, align 4, !tbaa !12
  call void @RC2_set_key(ptr noundef %11, i32 noundef %13, ptr noundef %14, i32 noundef %18)
  ret i32 1
}