; Function Attrs: nounwind uwtable
define internal noundef i32 @rc2_init_key(ptr noundef %0, ptr noundef %1, ptr readnone captures(none) %2, i32 %3) #1 {
  %5 = tail call ptr @EVP_CIPHER_CTX_get_cipher_data(ptr noundef %0) #6
  %6 = getelementptr inbounds nuw i8, ptr %5, i64 4
  %7 = tail call i32 @EVP_CIPHER_CTX_get_key_length(ptr noundef %0) #6
  %8 = tail call ptr @EVP_CIPHER_CTX_get_cipher_data(ptr noundef %0) #6
  %9 = load i32, ptr %8, align 4, !tbaa !3
  tail call void @RC2_set_key(ptr noundef nonnull %6, i32 noundef %7, ptr noundef %1, i32 noundef %9) #6
  ret i32 1
}